target datalayout = "e-m:e-p270:32:32-p271:32:32-p272:64:64-i64:64-i128:128-f80:128-n8:16:32:64-S128"
target triple = "x86_64-pc-linux-gnu"

%"class.std::__cxx11::basic_string" = type { %"struct.std::__cxx11::basic_string<char>::_Alloc_hider", i64, %union.anon.15 }
%"struct.std::__cxx11::basic_string<char>::_Alloc_hider" = type { ptr }
%union.anon.15 = type { i64, [8 x i8] }
%"class.pxrInternal_v0_24__pxrReserved__::Plug_RegistrationMetadata" = type { i32, %"class.std::__cxx11::basic_string", %"class.std::__cxx11::basic_string", %"class.std::map", %"class.std::__cxx11::basic_string", %"class.std::__cxx11::basic_string" }
%"class.std::map" = type { %"class.std::_Rb_tree" }
%"class.std::_Rb_tree" = type { %"struct.std::_Rb_tree<std::__cxx11::basic_string<char>, std::pair<const std::__cxx11::basic_string<char>, pxrInternal_v0_24__pxrReserved__::JsValue>, std::_Select1st<std::pair<const std::__cxx11::basic_string<char>, pxrInternal_v0_24__pxrReserved__::JsValue>>, std::less<std::__cxx11::basic_string<char>>>::_Rb_tree_impl" }
%"struct.std::_Rb_tree<std::__cxx11::basic_string<char>, std::pair<const std::__cxx11::basic_string<char>, pxrInternal_v0_24__pxrReserved__::JsValue>, std::_Select1st<std::pair<const std::__cxx11::basic_string<char>, pxrInternal_v0_24__pxrReserved__::JsValue>>, std::less<std::__cxx11::basic_string<char>>>::_Rb_tree_impl" = type { [8 x i8], %"struct.std::_Rb_tree_header" }
%"struct.std::_Rb_tree_header" = type { %"struct.std::_Rb_tree_node_base", i64 }
%"struct.std::_Rb_tree_node_base" = type { i32, ptr, ptr, ptr }
%"class.tbb::detail::d1::small_object_allocator" = type { ptr }
%"class.tbb::detail::d1::task" = type { ptr, %"class.tbb::detail::d1::task_traits", [6 x i64] }
%"class.tbb::detail::d1::task_traits" = type { i64 }
%class.anon.103 = type { ptr, %"class.pxrInternal_v0_24__pxrReserved__::Plug_RegistrationMetadata" }
%"struct.pxrInternal_v0_24__pxrReserved__::WorkDispatcher::_InvokerTask.104" = type { %class.anon.103, ptr }
%"class.tbb::detail::d1::function_task.105" = type { %"class.tbb::detail::d1::task", %"struct.pxrInternal_v0_24__pxrReserved__::WorkDispatcher::_InvokerTask.104", ptr, %"class.tbb::detail::d1::small_object_allocator", [40 x i8] }

; Function Attrs: mustprogress nounwind uwtable
define linkonce_odr void @_ZNSt15__new_allocatorISt13_Rb_tree_nodeISt4pairIKNSt7__cxx1112basic_stringIcSt11char_traitsIcESaIcEEEN32pxrInternal_v0_24__pxrReserved__7JsValueEEEED2Ev(ptr noundef nonnull align 1 dereferenceable(1) %0) unnamed_addr #3 comdat align 2 {
  %2 = alloca ptr, align 8
  store ptr %0, ptr %2, align 8
  ret void
}

; Function Attrs: mustprogress nounwind uwtable
define linkonce_odr void @_ZNSaISt13_Rb_tree_nodeISt4pairIKNSt7__cxx1112basic_stringIcSt11char_traitsIcESaIcEEEN32pxrInternal_v0_24__pxrReserved__7JsValueEEEED2Ev(ptr noundef nonnull align 1 dereferenceable(1) %0) unnamed_addr #3 comdat align 2 {
  %2 = alloca ptr, align 8
  store ptr %0, ptr %2, align 8
  %3 = load ptr, ptr %2, align 8
  call void @_ZNSt15__new_allocatorISt13_Rb_tree_nodeISt4pairIKNSt7__cxx1112basic_stringIcSt11char_traitsIcESaIcEEEN32pxrInternal_v0_24__pxrReserved__7JsValueEEEED2Ev(ptr noundef nonnull align 1 dereferenceable(1) %3) #15
  ret void
}

; Function Attrs: mustprogress nounwind uwtable
define linkonce_odr noundef ptr @_ZNKSt8_Rb_treeINSt7__cxx1112basic_stringIcSt11char_traitsIcESaIcEEESt4pairIKS5_N32pxrInternal_v0_24__pxrReserved__7JsValueEESt10_Select1stISA_ESt4lessIS5_ESaISA_EE9_M_mbeginEv(ptr noundef nonnull align 8 dereferenceable(48) %0) #3 comdat align 2 {
  %2 = alloca ptr, align 8
  store ptr %0, ptr %2, align 8
  %3 = load ptr, ptr %2, align 8
  %4 = getelementptr inbounds nuw %"class.std::_Rb_tree", ptr %3, i32 0, i32 0
  %5 = getelementptr inbounds i8, ptr %4, i64 8
  %6 = getelementptr inbounds nuw %"struct.std::_Rb_tree_header", ptr %5, i32 0, i32 0
  %7 = getelementptr inbounds nuw %"struct.std::_Rb_tree_node_base", ptr %6, i32 0, i32 1
  %8 = load ptr, ptr %7, align 8
  ret ptr %8
}

; Function Attrs: mustprogress nounwind uwtable
define linkonce_odr void @_ZNSt8_Rb_treeINSt7__cxx1112basic_stringIcSt11char_traitsIcESaIcEEESt4pairIKS5_N32pxrInternal_v0_24__pxrReserved__7JsValueEESt10_Select1stISA_ESt4lessIS5_ESaISA_EE13_Rb_tree_implISE_Lb1EED2Ev(ptr noundef nonnull align 8 dereferenceable(48) %0) unnamed_addr #3 comdat align 2 {
  %2 = alloca ptr, align 8
  store ptr %0, ptr %2, align 8
  %3 = load ptr, ptr %2, align 8
  call void @_ZNSaISt13_Rb_tree_nodeISt4pairIKNSt7__cxx1112basic_stringIcSt11char_traitsIcESaIcEEEN32pxrInternal_v0_24__pxrReserved__7JsValueEEEED2Ev(ptr noundef nonnull align 1 dereferenceable(1) %3) #15
  ret void
}

; Function Attrs: mustprogress nounwind uwtable
define linkonce_odr noundef ptr @_ZNSt8_Rb_treeINSt7__cxx1112basic_stringIcSt11char_traitsIcESaIcEEESt4pairIKS5_N32pxrInternal_v0_24__pxrReserved__7JsValueEESt10_Select1stISA_ESt4lessIS5_ESaISA_EE8_M_beginEv(ptr noundef nonnull align 8 dereferenceable(48) %0) #3 comdat align 2 {
  %2 = alloca ptr, align 8
  store ptr %0, ptr %2, align 8
  %3 = load ptr, ptr %2, align 8
  %4 = call noundef ptr @_ZNKSt8_Rb_treeINSt7__cxx1112basic_stringIcSt11char_traitsIcESaIcEEESt4pairIKS5_N32pxrInternal_v0_24__pxrReserved__7JsValueEESt10_Select1stISA_ESt4lessIS5_ESaISA_EE9_M_mbeginEv(ptr noundef nonnull align 8 dereferenceable(48) %3) #15
  ret ptr %4
}

; Function Attrs: mustprogress nounwind uwtable
define linkonce_odr void @_ZNSt8_Rb_treeINSt7__cxx1112basic_stringIcSt11char_traitsIcESaIcEEESt4pairIKS5_N32pxrInternal_v0_24__pxrReserved__7JsValueEESt10_Select1stISA_ESt4lessIS5_ESaISA_EED2Ev(ptr noundef nonnull align 8 dereferenceable(48) %0) unnamed_addr #3 comdat align 2 personality ptr @__gxx_personality_v0 {
  %2 = alloca ptr, align 8
  store ptr %0, ptr %2, align 8
  %3 = load ptr, ptr %2, align 8
  %4 = call noundef ptr @_ZNSt8_Rb_treeINSt7__cxx1112basic_stringIcSt11char_traitsIcESaIcEEESt4pairIKS5_N32pxrInternal_v0_24__pxrReserved__7JsValueEESt10_Select1stISA_ESt4lessIS5_ESaISA_EE8_M_beginEv(ptr noundef nonnull align 8 dereferenceable(48) %3) #15
  invoke void @_ZNSt8_Rb_treeINSt7__cxx1112basic_stringIcSt11char_traitsIcESaIcEEESt4pairIKS5_N32pxrInternal_v0_24__pxrReserved__7JsValueEESt10_Select1stISA_ESt4lessIS5_ESaISA_EE8_M_eraseEPSt13_Rb_tree_nodeISA_E(ptr noundef nonnull align 8 dereferenceable(48) %3, ptr noundef %4)
          to label %5 unwind label %7

5:                                                ; preds = %1
  %6 = getelementptr inbounds nuw %"class.std::_Rb_tree", ptr %3, i32 0, i32 0
  call void @_ZNSt8_Rb_treeINSt7__cxx1112basic_stringIcSt11char_traitsIcESaIcEEESt4pairIKS5_N32pxrInternal_v0_24__pxrReserved__7JsValueEESt10_Select1stISA_ESt4lessIS5_ESaISA_EE13_Rb_tree_implISE_Lb1EED2Ev(ptr noundef nonnull align 8 dereferenceable(48) %6) #15
  ret void

7:                                                ; preds = %1
  %8 = landingpad { ptr, i32 }
          catch ptr null
  %9 = extractvalue { ptr, i32 } %8, 0
  call void @__clang_call_terminate(ptr %9) #20
  unreachable
}

; Function Attrs: mustprogress nounwind uwtable
define linkonce_odr void @_ZNSt3mapINSt7__cxx1112basic_stringIcSt11char_traitsIcESaIcEEEN32pxrInternal_v0_24__pxrReserved__7JsValueESt4lessIS5_ESaISt4pairIKS5_S7_EEED2Ev(ptr noundef nonnull align 8 dereferenceable(48) %0) unnamed_addr #3 comdat align 2 {
  %2 = alloca ptr, align 8
  store ptr %0, ptr %2, align 8
  %3 = load ptr, ptr %2, align 8
  %4 = getelementptr inbounds nuw %"class.std::map", ptr %3, i32 0, i32 0
  call void @_ZNSt8_Rb_treeINSt7__cxx1112basic_stringIcSt11char_traitsIcESaIcEEESt4pairIKS5_N32pxrInternal_v0_24__pxrReserved__7JsValueEESt10_Select1stISA_ESt4lessIS5_ESaISA_EED2Ev(ptr noundef nonnull align 8 dereferenceable(48) %4) #15
  ret void
}

; Function Attrs: mustprogress nounwind uwtable
define linkonce_odr void @_ZN32pxrInternal_v0_24__pxrReserved__25Plug_RegistrationMetadataD2Ev(ptr noundef nonnull align 8 dereferenceable(184) %0) unnamed_addr #3 comdat align 2 {
  %2 = alloca ptr, align 8
  store ptr %0, ptr %2, align 8
  %3 = load ptr, ptr %2, align 8
  %4 = getelementptr inbounds nuw %"class.pxrInternal_v0_24__pxrReserved__::Plug_RegistrationMetadata", ptr %3, i32 0, i32 5
  call void @_ZNSt7__cxx1112basic_stringIcSt11char_traitsIcESaIcEED1Ev(ptr noundef nonnull align 8 dereferenceable(32) %4) #15
  %5 = getelementptr inbounds nuw %"class.pxrInternal_v0_24__pxrReserved__::Plug_RegistrationMetadata", ptr %3, i32 0, i32 4
  call void @_ZNSt7__cxx1112basic_stringIcSt11char_traitsIcESaIcEED1Ev(ptr noundef nonnull align 8 dereferenceable(32) %5) #15
  %6 = getelementptr inbounds nuw %"class.pxrInternal_v0_24__pxrReserved__::Plug_RegistrationMetadata", ptr %3, i32 0, i32 3
  call void @_ZNSt3mapINSt7__cxx1112basic_stringIcSt11char_traitsIcESaIcEEEN32pxrInternal_v0_24__pxrReserved__7JsValueESt4lessIS5_ESaISt4pairIKS5_S7_EEED2Ev(ptr noundef nonnull align 8 dereferenceable(48) %6) #15
  %7 = getelementptr inbounds nuw %"class.pxrInternal_v0_24__pxrReserved__::Plug_RegistrationMetadata", ptr %3, i32 0, i32 2
  call void @_ZNSt7__cxx1112basic_stringIcSt11char_traitsIcESaIcEED1Ev(ptr noundef nonnull align 8 dereferenceable(32) %7) #15
  %8 = getelementptr inbounds nuw %"class.pxrInternal_v0_24__pxrReserved__::Plug_RegistrationMetadata", ptr %3, i32 0, i32 1
  call void @_ZNSt7__cxx1112basic_stringIcSt11char_traitsIcESaIcEED1Ev(ptr noundef nonnull align 8 dereferenceable(32) %8) #15
  ret void
}

; Function Attrs: mustprogress nounwind uwtable
define internal void @"_ZZN32pxrInternal_v0_24__pxrReserved__12_GLOBAL__N_110_AddPluginEPNS0_12_ReadContextERKNSt7__cxx1112basic_stringIcSt11char_traitsIcESaIcEEESA_mRKNS_7JsValueEEN3$_0D2Ev"(ptr noundef nonnull align 8 dereferenceable(192) %0) unnamed_addr #3 align 2 {
  %2 = alloca ptr, align 8
  store ptr %0, ptr %2, align 8
  %3 = load ptr, ptr %2, align 8
  %4 = getelementptr inbounds nuw %class.anon.103, ptr %3, i32 0, i32 1
  call void @_ZN32pxrInternal_v0_24__pxrReserved__25Plug_RegistrationMetadataD2Ev(ptr noundef nonnull align 8 dereferenceable(184) %4) #15
  ret void
}

; Function Attrs: mustprogress nounwind uwtable
define linkonce_odr void @_ZN3tbb6detail2d14taskD2Ev(ptr noundef nonnull align 64 dereferenceable(64) %0) unnamed_addr #3 comdat align 2 {
  %2 = alloca ptr, align 8
  store ptr %0, ptr %2, align 8
  ret void
}

; Function Attrs: mustprogress nounwind uwtable
define internal void @"_ZN32pxrInternal_v0_24__pxrReserved__14WorkDispatcher12_InvokerTaskIKZNS_12_GLOBAL__N_110_AddPluginEPNS2_12_ReadContextERKNSt7__cxx1112basic_stringIcSt11char_traitsIcESaIcEEESC_mRKNS_7JsValueEE3$_0ED2Ev"(ptr noundef nonnull align 8 dereferenceable(200) %0) unnamed_addr #3 align 2 {
  %2 = alloca ptr, align 8
  store ptr %0, ptr %2, align 8
  %3 = load ptr, ptr %2, align 8
  %4 = getelementptr inbounds nuw %"struct.pxrInternal_v0_24__pxrReserved__::WorkDispatcher::_InvokerTask.104", ptr %3, i32 0, i32 0
  call void @"_ZZN32pxrInternal_v0_24__pxrReserved__12_GLOBAL__N_110_AddPluginEPNS0_12_ReadContextERKNSt7__cxx1112basic_stringIcSt11char_traitsIcESaIcEEESA_mRKNS_7JsValueEEN3$_0D2Ev"(ptr noundef nonnull align 8 dereferenceable(192) %4) #15
  ret void
}

; Function Attrs: mustprogress nounwind uwtable
define internal void @"_ZN3tbb6detail2d113function_taskIN32pxrInternal_v0_24__pxrReserved__14WorkDispatcher12_InvokerTaskIKZNS3_12_GLOBAL__N_110_AddPluginEPNS6_12_ReadContextERKNSt7__cxx1112basic_stringIcSt11char_traitsIcESaIcEEESG_mRKNS3_7JsValueEE3$_0EEED2Ev"(ptr noundef nonnull align 64 dereferenceable(280) %0) unnamed_addr #3 align 2 {
  %2 = alloca ptr, align 8
  store ptr %0, ptr %2, align 8
  %3 = load ptr, ptr %2, align 8
  store ptr getelementptr inbounds inrange(-16, 32) ({ [6 x ptr] }, ptr @"_ZTVN3tbb6detail2d113function_taskIN32pxrInternal_v0_24__pxrReserved__14WorkDispatcher12_InvokerTaskIKZNS3_12_GLOBAL__N_110_AddPluginEPNS6_12_ReadContextERKNSt7__cxx1112basic_stringIcSt11char_traitsIcESaIcEEESG_mRKNS3_7JsValueEE3$_0EEEE", i32 0, i32 0, i32 2), ptr %3, align 64
  %4 = getelementptr inbounds nuw %"class.tbb::detail::d1::function_task.105", ptr %3, i32 0, i32 1
  call void @"_ZN32pxrInternal_v0_24__pxrReserved__14WorkDispatcher12_InvokerTaskIKZNS_12_GLOBAL__N_110_AddPluginEPNS2_12_ReadContextERKNSt7__cxx1112basic_stringIcSt11char_traitsIcESaIcEEESC_mRKNS_7JsValueEE3$_0ED2Ev"(ptr noundef nonnull align 8 dereferenceable(200) %4) #15
  call void @_ZN3tbb6detail2d14taskD2Ev(ptr noundef nonnull align 64 dereferenceable(64) %3) #15
  ret void
}